SF:D:\34644\Documents\GitHub\SVAES\engine\src\aggregator.rs
FN:24,_RNCNvNtCslt99XOVHWy4_12svaes_engine10aggregator9aggregate0B5_
FN:18,_RNvNtCslt99XOVHWy4_12svaes_engine10aggregator9aggregate
FN:55,_RNvNtNtCslt99XOVHWy4_12svaes_engine10aggregator5tests15make_evaluation
FN:63,_RNvNtNtCslt99XOVHWy4_12svaes_engine10aggregator5tests9make_rule
FN:82,_RNvNtNtCslt99XOVHWy4_12svaes_engine10aggregator5testss_41tc_uni_agg_01_all_rules_ok_returns_valida
FN:108,_RNvNtNtCslt99XOVHWy4_12svaes_engine10aggregator5testss_51tc_uni_agg_02_one_mandatory_error_returns_no_valida
FN:163,_RNvNtNtCslt99XOVHWy4_12svaes_engine10aggregator5testss_53tc_uni_agg_04_transition_zero_to_one_mandatory_errors
FN:221,_RNvNtNtCslt99XOVHWy4_12svaes_engine10aggregator5testss_56tc_uni_agg_06_mandatory_error_overrides_optional_warning
FN:252,_RNvNtNtCslt99XOVHWy4_12svaes_engine10aggregator5testss_57tc_uni_agg_07_multiple_mandatory_errors_returns_no_valida
FN:194,_RNvNtNtCslt99XOVHWy4_12svaes_engine10aggregator5testss_62tc_uni_agg_05_excluida_rules_no_evaluada_do_not_affect_verdict
FN:135,_RNvNtNtCslt99XOVHWy4_12svaes_engine10aggregator5testss_79tc_uni_agg_03_optional_warning_without_mandatory_error_returns_con_advertencias
FNDA:23,_RNCNvNtCslt99XOVHWy4_12svaes_engine10aggregator9aggregate0B5_
FNDA:8,_RNvNtCslt99XOVHWy4_12svaes_engine10aggregator9aggregate
FNDA:15,_RNvNtNtCslt99XOVHWy4_12svaes_engine10aggregator5tests15make_evaluation
FNDA:14,_RNvNtNtCslt99XOVHWy4_12svaes_engine10aggregator5tests9make_rule
FNDA:1,_RNvNtNtCslt99XOVHWy4_12svaes_engine10aggregator5testss_41tc_uni_agg_01_all_rules_ok_returns_valida
FNDA:1,_RNvNtNtCslt99XOVHWy4_12svaes_engine10aggregator5testss_51tc_uni_agg_02_one_mandatory_error_returns_no_valida
FNDA:1,_RNvNtNtCslt99XOVHWy4_12svaes_engine10aggregator5testss_53tc_uni_agg_04_transition_zero_to_one_mandatory_errors
FNDA:1,_RNvNtNtCslt99XOVHWy4_12svaes_engine10aggregator5testss_56tc_uni_agg_06_mandatory_error_overrides_optional_warning
FNDA:1,_RNvNtNtCslt99XOVHWy4_12svaes_engine10aggregator5testss_57tc_uni_agg_07_multiple_mandatory_errors_returns_no_valida
FNDA:1,_RNvNtNtCslt99XOVHWy4_12svaes_engine10aggregator5testss_62tc_uni_agg_05_excluida_rules_no_evaluada_do_not_affect_verdict
FNDA:1,_RNvNtNtCslt99XOVHWy4_12svaes_engine10aggregator5testss_79tc_uni_agg_03_optional_warning_without_mandatory_error_returns_con_advertencias
FNF:11
FNH:11
DA:18,8
DA:19,8
DA:20,8
DA:22,15
DA:24,23
DA:26,5
DA:28,5
DA:29,5
DA:30,5
DA:32,3
DA:33,3
DA:34,3
DA:36,7
DA:38,0
DA:41,8
DA:42,4
DA:43,4
DA:44,1
DA:46,3
DA:48,8
DA:55,15
DA:56,15
DA:57,15
DA:58,15
DA:59,15
DA:60,15
DA:61,15
DA:63,14
DA:64,14
DA:65,14
DA:66,14
DA:67,14
DA:68,14
DA:69,14
DA:82,1
DA:83,1
DA:84,1
DA:85,1
DA:87,1
DA:88,1
DA:89,1
DA:92,1
DA:94,1
DA:95,1
DA:108,1
DA:109,1
DA:110,1
DA:111,1
DA:113,1
DA:114,1
DA:115,1
DA:118,1
DA:120,1
DA:121,1
DA:135,1
DA:136,1
DA:137,1
DA:138,1
DA:140,1
DA:141,1
DA:142,1
DA:145,1
DA:147,1
DA:148,1
DA:163,1
DA:164,1
DA:165,1
DA:167,1
DA:168,1
DA:171,1
DA:172,1
DA:174,1
DA:175,1
DA:178,1
DA:179,1
DA:180,1
DA:194,1
DA:195,1
DA:196,1
DA:197,1
DA:199,1
DA:200,1
DA:201,1
DA:204,1
DA:206,1
DA:207,1
DA:221,1
DA:222,1
DA:223,1
DA:224,1
DA:226,1
DA:227,1
DA:228,1
DA:231,1
DA:233,1
DA:234,1
DA:237,1
DA:252,1
DA:253,1
DA:254,1
DA:255,1
DA:256,1
DA:258,1
DA:259,1
DA:260,1
DA:261,1
DA:264,1
DA:266,1
DA:267,1
BRF:0
BRH:0
LF:110
LH:109
end_of_record
SF:D:\34644\Documents\GitHub\SVAES\engine\src\evaluator.rs
FN:68,_RNvNtCslt99XOVHWy4_12svaes_engine9evaluator16generate_summary
FN:23,_RNvNtCslt99XOVHWy4_12svaes_engine9evaluator8evaluate
FN:70,_RNCNvNtCslt99XOVHWy4_12svaes_engine9evaluator16generate_summary0B5_
FN:72,_RNCNvNtCslt99XOVHWy4_12svaes_engine9evaluator16generate_summarys0_0B5_
FN:73,_RNCNvNtCslt99XOVHWy4_12svaes_engine9evaluator16generate_summarys1_0B5_
FN:71,_RNCNvNtCslt99XOVHWy4_12svaes_engine9evaluator16generate_summarys_0B5_
FN:27,_RNCNvNtCslt99XOVHWy4_12svaes_engine9evaluator8evaluate0B5_
FNDA:0,_RNvNtCslt99XOVHWy4_12svaes_engine9evaluator16generate_summary
FNDA:0,_RNvNtCslt99XOVHWy4_12svaes_engine9evaluator8evaluate
FNDA:0,_RNCNvNtCslt99XOVHWy4_12svaes_engine9evaluator16generate_summary0B5_
FNDA:0,_RNCNvNtCslt99XOVHWy4_12svaes_engine9evaluator16generate_summarys0_0B5_
FNDA:0,_RNCNvNtCslt99XOVHWy4_12svaes_engine9evaluator16generate_summarys1_0B5_
FNDA:0,_RNCNvNtCslt99XOVHWy4_12svaes_engine9evaluator16generate_summarys_0B5_
FNDA:0,_RNCNvNtCslt99XOVHWy4_12svaes_engine9evaluator8evaluate0B5_
FNF:7
FNH:0
DA:23,0
DA:25,0
DA:26,0
DA:27,0
DA:28,0
DA:29,0
DA:30,0
DA:31,0
DA:32,0
DA:33,0
DA:34,0
DA:36,0
DA:37,0
DA:38,0
DA:39,0
DA:40,0
DA:41,0
DA:42,0
DA:43,0
DA:44,0
DA:45,0
DA:46,0
DA:47,0
DA:48,0
DA:49,0
DA:50,0
DA:51,0
DA:53,0
DA:54,0
DA:57,0
DA:59,0
DA:61,0
DA:62,0
DA:63,0
DA:64,0
DA:65,0
DA:66,0
DA:68,0
DA:69,0
DA:70,0
DA:71,0
DA:72,0
DA:73,0
DA:75,0
DA:76,0
DA:77,0
DA:78,0
DA:81,0
DA:85,0
BRF:0
BRH:0
LF:54
LH:0
end_of_record
SF:D:\34644\Documents\GitHub\SVAES\engine\src\lib.rs
FN:28,_RNCNvNvXCslt99XOVHWy4_12svaes_engineNtB6_14health_handlerNtNtCs2O34GxCK26O_9actix_web7service18HttpServiceFactory8register14health_handler0B6_
FN:44,_RNCNvNvXs_Cslt99XOVHWy4_12svaes_engineNtB8_14verify_handlerNtNtCs2O34GxCK26O_9actix_web7service18HttpServiceFactory8register14verify_handler0B8_
FN:28,_RNvNvXCslt99XOVHWy4_12svaes_engineNtB4_14health_handlerNtNtCs2O34GxCK26O_9actix_web7service18HttpServiceFactory8register14health_handler
FN:40,_RNvNvXs_Cslt99XOVHWy4_12svaes_engineNtB6_14verify_handlerNtNtCs2O34GxCK26O_9actix_web7service18HttpServiceFactory8register14verify_handler
FN:17,_RNvCslt99XOVHWy4_12svaes_engine13check_api_key
FNDA:0,_RNCNvNvXCslt99XOVHWy4_12svaes_engineNtB6_14health_handlerNtNtCs2O34GxCK26O_9actix_web7service18HttpServiceFactory8register14health_handler0B6_
FNDA:0,_RNCNvNvXs_Cslt99XOVHWy4_12svaes_engineNtB8_14verify_handlerNtNtCs2O34GxCK26O_9actix_web7service18HttpServiceFactory8register14verify_handler0B8_
FNDA:0,_RNvNvXCslt99XOVHWy4_12svaes_engineNtB4_14health_handlerNtNtCs2O34GxCK26O_9actix_web7service18HttpServiceFactory8register14health_handler
FNDA:0,_RNvNvXs_Cslt99XOVHWy4_12svaes_engineNtB6_14verify_handlerNtNtCs2O34GxCK26O_9actix_web7service18HttpServiceFactory8register14verify_handler
FNDA:0,_RNvCslt99XOVHWy4_12svaes_engine13check_api_key
FNF:5
FNH:0
DA:17,0
DA:18,0
DA:19,0
DA:20,0
DA:21,0
DA:22,0
DA:23,0
DA:25,0
DA:28,0
DA:29,0
DA:30,0
DA:31,0
DA:32,0
DA:33,0
DA:34,0
DA:35,0
DA:37,0
DA:40,0
DA:41,0
DA:42,0
DA:43,0
DA:44,0
DA:45,0
DA:46,0
DA:47,0
DA:48,0
DA:49,0
DA:50,0
BRF:0
BRH:0
LF:30
LH:0
end_of_record
SF:D:\34644\Documents\GitHub\SVAES\engine\src\rules\rv01.rs
FN:37,_RNvNtNtNtCslt99XOVHWy4_12svaes_engine5rules4rv015tests13make_artifact
FN:45,_RNvNtNtNtCslt99XOVHWy4_12svaes_engine5rules4rv015tests9make_rule
FN:56,_RNvNtNtNtCslt99XOVHWy4_12svaes_engine5rules4rv015testss_47tc_uni_mot_01_rv01_artifacts_present_returns_ok
FN:69,_RNvNtNtNtCslt99XOVHWy4_12svaes_engine5rules4rv015testss_48tc_uni_mot_11_rv01_empty_artifacts_returns_error
FN:16,_RNvNtNtCslt99XOVHWy4_12svaes_engine5rules4rv018evaluate
FNDA:1,_RNvNtNtNtCslt99XOVHWy4_12svaes_engine5rules4rv015tests13make_artifact
FNDA:2,_RNvNtNtNtCslt99XOVHWy4_12svaes_engine5rules4rv015tests9make_rule
FNDA:1,_RNvNtNtNtCslt99XOVHWy4_12svaes_engine5rules4rv015testss_47tc_uni_mot_01_rv01_artifacts_present_returns_ok
FNDA:1,_RNvNtNtNtCslt99XOVHWy4_12svaes_engine5rules4rv015testss_48tc_uni_mot_11_rv01_empty_artifacts_returns_error
FNDA:2,_RNvNtNtCslt99XOVHWy4_12svaes_engine5rules4rv018evaluate
FNF:5
FNH:5
DA:16,2
DA:17,2
DA:18,1
DA:19,1
DA:20,1
DA:21,1
DA:22,1
DA:24,1
DA:25,1
DA:26,1
DA:27,1
DA:28,1
DA:30,2
DA:37,1
DA:38,1
DA:39,1
DA:40,1
DA:41,1
DA:42,1
DA:43,1
DA:45,2
DA:46,2
DA:47,2
DA:48,2
DA:49,2
DA:50,2
DA:51,2
DA:56,1
DA:57,1
DA:58,1
DA:60,1
DA:62,1
DA:63,1
DA:64,1
DA:69,1
DA:70,1
DA:71,1
DA:73,1
DA:75,1
DA:76,1
DA:77,1
BRF:0
BRH:0
LF:41
LH:41
end_of_record
SF:D:\34644\Documents\GitHub\SVAES\engine\src\rules\rv02.rs
FN:21,_RNvNtNtCslt99XOVHWy4_12svaes_engine5rules4rv028evaluate
FN:24,_RNCNvNtNtCslt99XOVHWy4_12svaes_engine5rules4rv028evaluate0B7_
FN:34,_RNCNvNtNtCslt99XOVHWy4_12svaes_engine5rules4rv028evaluates0_0B7_
FN:39,_RNCNvNtNtCslt99XOVHWy4_12svaes_engine5rules4rv028evaluates1_0B7_
FN:40,_RNCNvNtNtCslt99XOVHWy4_12svaes_engine5rules4rv028evaluates2_0B7_
FN:45,_RNCNvNtNtCslt99XOVHWy4_12svaes_engine5rules4rv028evaluates3_0B7_
FN:29,_RNCNvNtNtCslt99XOVHWy4_12svaes_engine5rules4rv028evaluates_0B7_
FN:81,_RNvNtNtNtCslt99XOVHWy4_12svaes_engine5rules4rv025tests13make_artifact
FN:89,_RNvNtNtNtCslt99XOVHWy4_12svaes_engine5rules4rv025tests9make_rule
FN:118,_RNvNtNtNtCslt99XOVHWy4_12svaes_engine5rules4rv025testss_49tc_uni_mot_12_rv02_orphan_reference_returns_error
FN:100,_RNvNtNtNtCslt99XOVHWy4_12svaes_engine5rules4rv025testss_50tc_uni_mot_02_rv02_all_references_exist_returns_ok
FNDA:2,_RNvNtNtCslt99XOVHWy4_12svaes_engine5rules4rv028evaluate
FNDA:0,_RNCNvNtNtCslt99XOVHWy4_12svaes_engine5rules4rv028evaluate0B7_
FNDA:0,_RNCNvNtNtCslt99XOVHWy4_12svaes_engine5rules4rv028evaluates0_0B7_
FNDA:7,_RNCNvNtNtCslt99XOVHWy4_12svaes_engine5rules4rv028evaluates1_0B7_
FNDA:3,_RNCNvNtNtCslt99XOVHWy4_12svaes_engine5rules4rv028evaluates2_0B7_
FNDA:7,_RNCNvNtNtCslt99XOVHWy4_12svaes_engine5rules4rv028evaluates3_0B7_
FNDA:0,_RNCNvNtNtCslt99XOVHWy4_12svaes_engine5rules4rv028evaluates_0B7_
FNDA:7,_RNvNtNtNtCslt99XOVHWy4_12svaes_engine5rules4rv025tests13make_artifact
FNDA:2,_RNvNtNtNtCslt99XOVHWy4_12svaes_engine5rules4rv025tests9make_rule
FNDA:1,_RNvNtNtNtCslt99XOVHWy4_12svaes_engine5rules4rv025testss_49tc_uni_mot_12_rv02_orphan_reference_returns_error
FNDA:1,_RNvNtNtNtCslt99XOVHWy4_12svaes_engine5rules4rv025testss_50tc_uni_mot_02_rv02_all_references_exist_returns_ok
FNF:11
FNH:8
DA:21,2
DA:22,2
DA:23,2
DA:24,2
DA:25,2
DA:27,2
DA:28,2
DA:29,2
DA:30,2
DA:32,2
DA:33,2
DA:34,2
DA:35,2
DA:37,2
DA:38,2
DA:39,7
DA:40,3
DA:41,2
DA:43,2
DA:45,7
DA:46,4
DA:47,4
DA:48,4
DA:49,1
DA:50,3
DA:51,0
DA:52,0
DA:55,2
DA:56,1
DA:57,1
DA:58,1
DA:59,1
DA:60,1
DA:62,1
DA:63,1
DA:64,1
DA:65,1
DA:66,1
DA:67,1
DA:68,1
DA:69,1
DA:70,1
DA:71,1
DA:72,1
DA:74,2
DA:81,7
DA:82,7
DA:83,7
DA:84,7
DA:85,7
DA:86,7
DA:87,7
DA:89,2
DA:90,2
DA:91,2
DA:92,2
DA:93,2
DA:94,2
DA:95,2
DA:100,1
DA:101,1
DA:102,1
DA:103,1
DA:104,1
DA:105,1
DA:107,1
DA:109,1
DA:111,1
DA:112,1
DA:113,1
DA:118,1
DA:119,1
DA:120,1
DA:121,1
DA:122,1
DA:124,1
DA:126,1
DA:128,1
DA:129,1
DA:130,1
DA:131,1
BRF:0
BRH:0
LF:87
LH:82
end_of_record
SF:D:\34644\Documents\GitHub\SVAES\engine\src\rules\rv03.rs
FN:80,_RNvNtNtNtCslt99XOVHWy4_12svaes_engine5rules4rv035tests13make_artifact
FN:88,_RNvNtNtNtCslt99XOVHWy4_12svaes_engine5rules4rv035tests9make_rule
FN:99,_RNvNtNtNtCslt99XOVHWy4_12svaes_engine5rules4rv035testss_46tc_uni_mot_03_rv03_all_states_valid_returns_ok
FN:22,_RNvNtNtCslt99XOVHWy4_12svaes_engine5rules4rv038evaluate
FN:31,_RNCNCNvNtNtCslt99XOVHWy4_12svaes_engine5rules4rv038evaluates0_00B9_
FN:25,_RNCNvNtNtCslt99XOVHWy4_12svaes_engine5rules4rv038evaluate0B7_
FN:31,_RNCNvNtNtCslt99XOVHWy4_12svaes_engine5rules4rv038evaluates0_0B7_
FN:32,_RNCNvNtNtCslt99XOVHWy4_12svaes_engine5rules4rv038evaluates1_0B7_
FN:36,_RNCNvNtNtCslt99XOVHWy4_12svaes_engine5rules4rv038evaluates2_0B7_
FN:41,_RNCNvNtNtCslt99XOVHWy4_12svaes_engine5rules4rv038evaluates3_0B7_
FN:42,_RNCNvNtNtCslt99XOVHWy4_12svaes_engine5rules4rv038evaluates4_0B7_
FN:53,_RNCNvNtNtCslt99XOVHWy4_12svaes_engine5rules4rv038evaluates5_0B7_
FN:30,_RNCNvNtNtCslt99XOVHWy4_12svaes_engine5rules4rv038evaluates_0B7_
FNDA:2,_RNvNtNtNtCslt99XOVHWy4_12svaes_engine5rules4rv035tests13make_artifact
FNDA:1,_RNvNtNtNtCslt99XOVHWy4_12svaes_engine5rules4rv035tests9make_rule
FNDA:1,_RNvNtNtNtCslt99XOVHWy4_12svaes_engine5rules4rv035testss_46tc_uni_mot_03_rv03_all_states_valid_returns_ok
FNDA:1,_RNvNtNtCslt99XOVHWy4_12svaes_engine5rules4rv038evaluate
FNDA:2,_RNCNCNvNtNtCslt99XOVHWy4_12svaes_engine5rules4rv038evaluates0_00B9_
FNDA:0,_RNCNvNtNtCslt99XOVHWy4_12svaes_engine5rules4rv038evaluate0B7_
FNDA:1,_RNCNvNtNtCslt99XOVHWy4_12svaes_engine5rules4rv038evaluates0_0B7_
FNDA:0,_RNCNvNtNtCslt99XOVHWy4_12svaes_engine5rules4rv038evaluates1_0B7_
FNDA:0,_RNCNvNtNtCslt99XOVHWy4_12svaes_engine5rules4rv038evaluates2_0B7_
FNDA:2,_RNCNvNtNtCslt99XOVHWy4_12svaes_engine5rules4rv038evaluates3_0B7_
FNDA:2,_RNCNvNtNtCslt99XOVHWy4_12svaes_engine5rules4rv038evaluates4_0B7_
FNDA:0,_RNCNvNtNtCslt99XOVHWy4_12svaes_engine5rules4rv038evaluates5_0B7_
FNDA:1,_RNCNvNtNtCslt99XOVHWy4_12svaes_engine5rules4rv038evaluates_0B7_
FNF:13
FNH:9
DA:22,1
DA:23,1
DA:24,1
DA:25,1
DA:26,1
DA:28,1
DA:29,1
DA:30,1
DA:31,2
DA:32,1
DA:34,1
DA:35,1
DA:36,1
DA:37,1
DA:39,1
DA:40,1
DA:41,2
DA:42,2
DA:43,2
DA:44,2
DA:45,2
DA:46,2
DA:47,0
DA:50,0
DA:52,2
DA:53,1
DA:54,1
DA:56,1
DA:57,1
DA:58,1
DA:59,1
DA:60,1
DA:61,1
DA:63,0
DA:64,0
DA:65,0
DA:66,0
DA:67,0
DA:68,0
DA:69,0
DA:70,0
DA:71,0
DA:73,1
DA:80,2
DA:81,2
DA:82,2
DA:83,2
DA:84,2
DA:85,2
DA:86,2
DA:88,1
DA:89,1
DA:90,1
DA:91,1
DA:92,1
DA:93,1
DA:94,1
DA:99,1
DA:100,1
DA:101,1
DA:102,1
DA:104,1
DA:106,1
DA:108,1
DA:109,1
DA:110,1
BRF:0
BRH:0
LF:75
LH:60
end_of_record
SF:D:\34644\Documents\GitHub\SVAES\engine\src\rules\rv04.rs
FN:28,_RNCNCNvNtNtCslt99XOVHWy4_12svaes_engine5rules4rv048evaluates0_00B9_
FN:35,_RNCNCNvNtNtCslt99XOVHWy4_12svaes_engine5rules4rv048evaluates3_00B9_
FN:22,_RNCNvNtNtCslt99XOVHWy4_12svaes_engine5rules4rv048evaluate0B7_
FN:28,_RNCNvNtNtCslt99XOVHWy4_12svaes_engine5rules4rv048evaluates0_0B7_
FN:29,_RNCNvNtNtCslt99XOVHWy4_12svaes_engine5rules4rv048evaluates1_0B7_
FN:33,_RNCNvNtNtCslt99XOVHWy4_12svaes_engine5rules4rv048evaluates2_0B7_
FN:34,_RNCNvNtNtCslt99XOVHWy4_12svaes_engine5rules4rv048evaluates3_0B7_
FN:50,_RNCNvNtNtCslt99XOVHWy4_12svaes_engine5rules4rv048evaluates4_0B7_
FN:27,_RNCNvNtNtCslt99XOVHWy4_12svaes_engine5rules4rv048evaluates_0B7_
FN:77,_RNvNtNtNtCslt99XOVHWy4_12svaes_engine5rules4rv045tests13make_artifact
FN:85,_RNvNtNtNtCslt99XOVHWy4_12svaes_engine5rules4rv045tests9make_rule
FN:96,_RNvNtNtNtCslt99XOVHWy4_12svaes_engine5rules4rv045testss_46tc_uni_mot_04_rv04_all_fields_valid_returns_ok
FN:19,_RNvNtNtCslt99XOVHWy4_12svaes_engine5rules4rv048evaluate
FNDA:0,_RNCNCNvNtNtCslt99XOVHWy4_12svaes_engine5rules4rv048evaluates0_00B9_
FNDA:4,_RNCNCNvNtNtCslt99XOVHWy4_12svaes_engine5rules4rv048evaluates3_00B9_
FNDA:0,_RNCNvNtNtCslt99XOVHWy4_12svaes_engine5rules4rv048evaluate0B7_
FNDA:0,_RNCNvNtNtCslt99XOVHWy4_12svaes_engine5rules4rv048evaluates0_0B7_
FNDA:1,_RNCNvNtNtCslt99XOVHWy4_12svaes_engine5rules4rv048evaluates1_0B7_
FNDA:2,_RNCNvNtNtCslt99XOVHWy4_12svaes_engine5rules4rv048evaluates2_0B7_
FNDA:2,_RNCNvNtNtCslt99XOVHWy4_12svaes_engine5rules4rv048evaluates3_0B7_
FNDA:0,_RNCNvNtNtCslt99XOVHWy4_12svaes_engine5rules4rv048evaluates4_0B7_
FNDA:0,_RNCNvNtNtCslt99XOVHWy4_12svaes_engine5rules4rv048evaluates_0B7_
FNDA:2,_RNvNtNtNtCslt99XOVHWy4_12svaes_engine5rules4rv045tests13make_artifact
FNDA:1,_RNvNtNtNtCslt99XOVHWy4_12svaes_engine5rules4rv045tests9make_rule
FNDA:1,_RNvNtNtNtCslt99XOVHWy4_12svaes_engine5rules4rv045testss_46tc_uni_mot_04_rv04_all_fields_valid_returns_ok
FNDA:1,_RNvNtNtCslt99XOVHWy4_12svaes_engine5rules4rv048evaluate
FNF:13
FNH:8
DA:19,1
DA:20,1
DA:21,1
DA:22,1
DA:23,1
DA:25,1
DA:26,1
DA:27,1
DA:28,1
DA:29,1
DA:31,1
DA:32,1
DA:33,2
DA:34,2
DA:35,4
DA:36,4
DA:37,4
DA:38,4
DA:39,0
DA:40,4
DA:41,4
DA:42,4
DA:43,0
DA:46,0
DA:48,4
DA:49,2
DA:50,1
DA:51,1
DA:53,1
DA:54,1
DA:55,1
DA:56,1
DA:57,1
DA:58,1
DA:60,0
DA:61,0
DA:62,0
DA:63,0
DA:64,0
DA:65,0
DA:66,0
DA:67,0
DA:68,0
DA:70,1
DA:77,2
DA:78,2
DA:79,2
DA:80,2
DA:81,2
DA:82,2
DA:83,2
DA:85,1
DA:86,1
DA:87,1
DA:88,1
DA:89,1
DA:90,1
DA:91,1
DA:96,1
DA:97,1
DA:98,1
DA:99,1
DA:101,1
DA:103,1
DA:105,1
DA:106,1
BRF:0
BRH:0
LF:75
LH:58
end_of_record
SF:D:\34644\Documents\GitHub\SVAES\engine\src\rules\rv05.rs
FN:23,_RNCNvNtNtCslt99XOVHWy4_12svaes_engine5rules4rv058evaluate0B7_
FN:33,_RNCNvNtNtCslt99XOVHWy4_12svaes_engine5rules4rv058evaluates0_0B7_
FN:49,_RNCNvNtNtCslt99XOVHWy4_12svaes_engine5rules4rv058evaluates1_0B7_
FN:55,_RNCNvNtNtCslt99XOVHWy4_12svaes_engine5rules4rv058evaluates2_0B7_
FN:28,_RNCNvNtNtCslt99XOVHWy4_12svaes_engine5rules4rv058evaluates_0B7_
FN:20,_RNvNtNtCslt99XOVHWy4_12svaes_engine5rules4rv058evaluate
FN:82,_RNvNtNtNtCslt99XOVHWy4_12svaes_engine5rules4rv055tests13make_artifact
FN:90,_RNvNtNtNtCslt99XOVHWy4_12svaes_engine5rules4rv055tests9make_rule
FN:101,_RNvNtNtNtCslt99XOVHWy4_12svaes_engine5rules4rv055testss_44tc_uni_mot_05_rv05_all_accessible_returns_ok
FNDA:0,_RNCNvNtNtCslt99XOVHWy4_12svaes_engine5rules4rv058evaluate0B7_
FNDA:2,_RNCNvNtNtCslt99XOVHWy4_12svaes_engine5rules4rv058evaluates0_0B7_
FNDA:2,_RNCNvNtNtCslt99XOVHWy4_12svaes_engine5rules4rv058evaluates1_0B7_
FNDA:0,_RNCNvNtNtCslt99XOVHWy4_12svaes_engine5rules4rv058evaluates2_0B7_
FNDA:0,_RNCNvNtNtCslt99XOVHWy4_12svaes_engine5rules4rv058evaluates_0B7_
FNDA:1,_RNvNtNtCslt99XOVHWy4_12svaes_engine5rules4rv058evaluate
FNDA:2,_RNvNtNtNtCslt99XOVHWy4_12svaes_engine5rules4rv055tests13make_artifact
FNDA:1,_RNvNtNtNtCslt99XOVHWy4_12svaes_engine5rules4rv055tests9make_rule
FNDA:1,_RNvNtNtNtCslt99XOVHWy4_12svaes_engine5rules4rv055testss_44tc_uni_mot_05_rv05_all_accessible_returns_ok
FNF:9
FNH:6
DA:20,1
DA:21,1
DA:22,1
DA:23,1
DA:24,1
DA:26,1
DA:27,1
DA:28,1
DA:29,1
DA:31,1
DA:32,1
DA:33,2
DA:34,1
DA:36,1
DA:37,0
DA:38,0
DA:39,0
DA:40,0
DA:41,0
DA:42,0
DA:43,0
DA:44,0
DA:45,1
DA:47,1
DA:48,1
DA:49,2
DA:50,2
DA:51,2
DA:52,0
DA:54,2
DA:55,1
DA:56,1
DA:58,1
DA:59,1
DA:60,1
DA:61,1
DA:62,1
DA:63,1
DA:65,0
DA:66,0
DA:67,0
DA:68,0
DA:69,0
DA:70,0
DA:71,0
DA:72,0
DA:73,0
DA:75,1
DA:82,2
DA:83,2
DA:84,2
DA:85,2
DA:86,2
DA:87,2
DA:88,2
DA:90,1
DA:91,1
DA:92,1
DA:93,1
DA:94,1
DA:95,1
DA:96,1
DA:101,1
DA:102,1
DA:103,1
DA:104,1
DA:106,1
DA:108,1
DA:110,1
DA:111,1
DA:112,1
BRF:0
BRH:0
LF:76
LH:55
end_of_record
SF:D:\34644\Documents\GitHub\SVAES\engine\src\rules\rv06.rs
FN:25,_RNCNvNtNtCslt99XOVHWy4_12svaes_engine5rules4rv068evaluate0B7_
FN:35,_RNCNvNtNtCslt99XOVHWy4_12svaes_engine5rules4rv068evaluates0_0B7_
FN:40,_RNCNvNtNtCslt99XOVHWy4_12svaes_engine5rules4rv068evaluates1_0B7_
FN:41,_RNCNvNtNtCslt99XOVHWy4_12svaes_engine5rules4rv068evaluates2_0B7_
FN:47,_RNCNvNtNtCslt99XOVHWy4_12svaes_engine5rules4rv068evaluates3_0B7_
FN:30,_RNCNvNtNtCslt99XOVHWy4_12svaes_engine5rules4rv068evaluates_0B7_
FN:22,_RNvNtNtCslt99XOVHWy4_12svaes_engine5rules4rv068evaluate
FN:76,_RNvNtNtNtCslt99XOVHWy4_12svaes_engine5rules4rv065tests13make_artifact
FN:87,_RNvNtNtNtCslt99XOVHWy4_12svaes_engine5rules4rv065testss_48tc_uni_mot_06_rv06_all_versions_match_returns_ok
FNDA:0,_RNCNvNtNtCslt99XOVHWy4_12svaes_engine5rules4rv068evaluate0B7_
FNDA:1,_RNCNvNtNtCslt99XOVHWy4_12svaes_engine5rules4rv068evaluates0_0B7_
FNDA:2,_RNCNvNtNtCslt99XOVHWy4_12svaes_engine5rules4rv068evaluates1_0B7_
FNDA:2,_RNCNvNtNtCslt99XOVHWy4_12svaes_engine5rules4rv068evaluates2_0B7_
FNDA:0,_RNCNvNtNtCslt99XOVHWy4_12svaes_engine5rules4rv068evaluates3_0B7_
FNDA:0,_RNCNvNtNtCslt99XOVHWy4_12svaes_engine5rules4rv068evaluates_0B7_
FNDA:1,_RNvNtNtCslt99XOVHWy4_12svaes_engine5rules4rv068evaluate
FNDA:2,_RNvNtNtNtCslt99XOVHWy4_12svaes_engine5rules4rv065tests13make_artifact
FNDA:1,_RNvNtNtNtCslt99XOVHWy4_12svaes_engine5rules4rv065testss_48tc_uni_mot_06_rv06_all_versions_match_returns_ok
FNF:9
FNH:6
DA:22,1
DA:23,1
DA:24,1
DA:25,1
DA:26,1
DA:28,1
DA:29,1
DA:30,1
DA:31,1
DA:33,1
DA:34,1
DA:35,1
DA:36,1
DA:38,1
DA:39,1
DA:40,2
DA:41,2
DA:42,2
DA:43,2
DA:44,0
DA:46,2
DA:47,1
DA:48,1
DA:50,1
DA:51,1
DA:52,1
DA:53,1
DA:54,1
DA:55,1
DA:57,0
DA:58,0
DA:59,0
DA:60,0
DA:61,0
DA:62,0
DA:63,0
DA:64,0
DA:65,0
DA:66,0
DA:67,0
DA:69,1
DA:76,2
DA:77,2
DA:78,2
DA:79,2
DA:80,2
DA:81,2
DA:82,2
DA:87,1
DA:88,1
DA:89,1
DA:90,1
DA:92,1
DA:93,1
DA:94,1
DA:95,1
DA:96,1
DA:98,1
DA:100,1
DA:101,1
DA:102,1
BRF:0
BRH:0
LF:67
LH:52
end_of_record
SF:D:\34644\Documents\GitHub\SVAES\engine\src\rules\rv07.rs
FN:81,_RNvNtNtNtCslt99XOVHWy4_12svaes_engine5rules4rv075tests13make_artifact
FN:89,_RNvNtNtNtCslt99XOVHWy4_12svaes_engine5rules4rv075tests9make_rule
FN:100,_RNvNtNtNtCslt99XOVHWy4_12svaes_engine5rules4rv075testss_42tc_uni_mot_07_rv07_marker_found_returns_ok
FN:23,_RNCNvNtNtCslt99XOVHWy4_12svaes_engine5rules4rv078evaluate0B7_
FN:33,_RNCNvNtNtCslt99XOVHWy4_12svaes_engine5rules4rv078evaluates0_0B7_
FN:28,_RNCNvNtNtCslt99XOVHWy4_12svaes_engine5rules4rv078evaluates_0B7_
FN:20,_RNvNtNtCslt99XOVHWy4_12svaes_engine5rules4rv078evaluate
FNDA:1,_RNvNtNtNtCslt99XOVHWy4_12svaes_engine5rules4rv075tests13make_artifact
FNDA:1,_RNvNtNtNtCslt99XOVHWy4_12svaes_engine5rules4rv075tests9make_rule
FNDA:1,_RNvNtNtNtCslt99XOVHWy4_12svaes_engine5rules4rv075testss_42tc_uni_mot_07_rv07_marker_found_returns_ok
FNDA:0,_RNCNvNtNtCslt99XOVHWy4_12svaes_engine5rules4rv078evaluate0B7_
FNDA:1,_RNCNvNtNtCslt99XOVHWy4_12svaes_engine5rules4rv078evaluates0_0B7_
FNDA:0,_RNCNvNtNtCslt99XOVHWy4_12svaes_engine5rules4rv078evaluates_0B7_
FNDA:1,_RNvNtNtCslt99XOVHWy4_12svaes_engine5rules4rv078evaluate
FNF:7
FNH:5
DA:20,1
DA:21,1
DA:22,1
DA:23,1
DA:24,1
DA:26,1
DA:27,1
DA:28,1
DA:29,1
DA:31,1
DA:32,1
DA:33,1
DA:35,1
DA:36,1
DA:37,1
DA:38,1
DA:39,1
DA:40,1
DA:41,1
DA:42,1
DA:43,1
DA:44,1
DA:45,1
DA:46,1
DA:47,1
DA:50,0
DA:51,0
DA:52,0
DA:53,0
DA:54,0
DA:55,0
DA:56,0
DA:57,0
DA:58,0
DA:59,0
DA:64,0
DA:65,0
DA:66,0
DA:67,0
DA:68,0
DA:69,0
DA:70,0
DA:71,0
DA:74,1
DA:81,1
DA:82,1
DA:83,1
DA:84,1
DA:85,1
DA:86,1
DA:87,1
DA:89,1
DA:90,1
DA:91,1
DA:92,1
DA:93,1
DA:94,1
DA:95,1
DA:100,1
DA:101,1
DA:102,1
DA:104,1
DA:106,1
DA:108,1
DA:109,1
DA:110,1
BRF:0
BRH:0
LF:69
LH:49
end_of_record
SF:D:\34644\Documents\GitHub\SVAES\engine\src\rules\rv08.rs
FN:24,_RNvNtNtCslt99XOVHWy4_12svaes_engine5rules4rv088evaluate
FN:122,_RNvNtNtNtCslt99XOVHWy4_12svaes_engine5rules4rv085tests13make_artifact
FN:130,_RNvNtNtNtCslt99XOVHWy4_12svaes_engine5rules4rv085tests9make_rule
FN:141,_RNvNtNtNtCslt99XOVHWy4_12svaes_engine5rules4rv085testss_41tc_uni_mot_08_rv08_exact_match_returns_ok
FN:25,_RNCNvNtNtCslt99XOVHWy4_12svaes_engine5rules4rv088evaluate0B7_
FN:43,_RNCNvNtNtCslt99XOVHWy4_12svaes_engine5rules4rv088evaluates0_0B7_
FN:46,_RNCNvNtNtCslt99XOVHWy4_12svaes_engine5rules4rv088evaluates1_0B7_
FN:60,_RNCNvNtNtCslt99XOVHWy4_12svaes_engine5rules4rv088evaluates2_0B7_
FN:87,_RNCNvNtNtCslt99XOVHWy4_12svaes_engine5rules4rv088evaluates3_0B7_
FN:88,_RNCNvNtNtCslt99XOVHWy4_12svaes_engine5rules4rv088evaluates4_0B7_
FN:38,_RNCNvNtNtCslt99XOVHWy4_12svaes_engine5rules4rv088evaluates_0B7_
FNDA:1,_RNvNtNtCslt99XOVHWy4_12svaes_engine5rules4rv088evaluate
FNDA:3,_RNvNtNtNtCslt99XOVHWy4_12svaes_engine5rules4rv085tests13make_artifact
FNDA:1,_RNvNtNtNtCslt99XOVHWy4_12svaes_engine5rules4rv085tests9make_rule
FNDA:1,_RNvNtNtNtCslt99XOVHWy4_12svaes_engine5rules4rv085testss_41tc_uni_mot_08_rv08_exact_match_returns_ok
FNDA:1,_RNCNvNtNtCslt99XOVHWy4_12svaes_engine5rules4rv088evaluate0B7_
FNDA:0,_RNCNvNtNtCslt99XOVHWy4_12svaes_engine5rules4rv088evaluates0_0B7_
FNDA:1,_RNCNvNtNtCslt99XOVHWy4_12svaes_engine5rules4rv088evaluates1_0B7_
FNDA:2,_RNCNvNtNtCslt99XOVHWy4_12svaes_engine5rules4rv088evaluates2_0B7_
FNDA:3,_RNCNvNtNtCslt99XOVHWy4_12svaes_engine5rules4rv088evaluates3_0B7_
FNDA:2,_RNCNvNtNtCslt99XOVHWy4_12svaes_engine5rules4rv088evaluates4_0B7_
FNDA:0,_RNCNvNtNtCslt99XOVHWy4_12svaes_engine5rules4rv088evaluates_0B7_
FNF:11
FNH:9
DA:24,1
DA:25,1
DA:26,1
DA:28,0
DA:29,0
DA:30,0
DA:31,0
DA:32,0
DA:36,1
DA:37,1
DA:38,1
DA:39,1
DA:41,1
DA:42,1
DA:43,1
DA:44,1
DA:46,1
DA:47,1
DA:49,0
DA:50,0
DA:51,0
DA:52,0
DA:53,0
DA:57,1
DA:58,1
DA:59,1
DA:60,2
DA:62,0
DA:63,0
DA:64,0
DA:65,0
DA:66,0
DA:67,0
DA:68,0
DA:69,0
DA:74,0
DA:75,0
DA:76,0
DA:77,0
DA:78,0
DA:79,0
DA:80,0
DA:81,0
DA:85,1
DA:86,1
DA:87,3
DA:88,2
DA:89,1
DA:91,1
DA:92,1
DA:93,1
DA:94,1
DA:96,1
DA:97,1
DA:98,1
DA:99,1
DA:100,1
DA:101,1
DA:103,0
DA:104,0
DA:105,0
DA:106,0
DA:107,0
DA:108,0
DA:109,0
DA:110,0
DA:111,0
DA:112,0
DA:113,0
DA:115,1
DA:122,3
DA:123,3
DA:124,3
DA:125,3
DA:126,3
DA:127,3
DA:128,3
DA:130,1
DA:131,1
DA:132,1
DA:133,1
DA:134,1
DA:135,1
DA:136,1
DA:141,1
DA:142,1
DA:143,1
DA:144,1
DA:145,1
DA:147,1
DA:149,1
DA:151,1
DA:152,1
DA:153,1
BRF:0
BRH:0
LF:101
LH:62
end_of_record
SF:D:\34644\Documents\GitHub\SVAES\engine\src\rules\rv09.rs
FN:37,_RNCNCNvNtNtCslt99XOVHWy4_12svaes_engine5rules4rv098evaluates0_00B9_
FN:31,_RNCNvNtNtCslt99XOVHWy4_12svaes_engine5rules4rv098evaluate0B7_
FN:37,_RNCNvNtNtCslt99XOVHWy4_12svaes_engine5rules4rv098evaluates0_0B7_
FN:38,_RNCNvNtNtCslt99XOVHWy4_12svaes_engine5rules4rv098evaluates1_0B7_
FN:42,_RNCNvNtNtCslt99XOVHWy4_12svaes_engine5rules4rv098evaluates2_0B7_
FN:55,_RNCNvNtNtCslt99XOVHWy4_12svaes_engine5rules4rv098evaluates3_0B7_
FN:36,_RNCNvNtNtCslt99XOVHWy4_12svaes_engine5rules4rv098evaluates_0B7_
FN:50,_RNCNvNvNtNtCslt99XOVHWy4_12svaes_engine5rules4rv098evaluate15is_valid_branch0B9_
FN:28,_RNvNtNtCslt99XOVHWy4_12svaes_engine5rules4rv098evaluate
FN:45,_RNvNvNtNtCslt99XOVHWy4_12svaes_engine5rules4rv098evaluate12is_valid_url
FN:49,_RNvNvNtNtCslt99XOVHWy4_12svaes_engine5rules4rv098evaluate15is_valid_branch
FN:103,_RNvNtNtNtCslt99XOVHWy4_12svaes_engine5rules4rv095tests13make_artifact
FN:111,_RNvNtNtNtCslt99XOVHWy4_12svaes_engine5rules4rv095tests9make_rule
FN:122,_RNvNtNtNtCslt99XOVHWy4_12svaes_engine5rules4rv095testss_46tc_uni_mot_09_rv09_valid_references_returns_ok
FNDA:0,_RNCNCNvNtNtCslt99XOVHWy4_12svaes_engine5rules4rv098evaluates0_00B9_
FNDA:0,_RNCNvNtNtCslt99XOVHWy4_12svaes_engine5rules4rv098evaluate0B7_
FNDA:0,_RNCNvNtNtCslt99XOVHWy4_12svaes_engine5rules4rv098evaluates0_0B7_
FNDA:1,_RNCNvNtNtCslt99XOVHWy4_12svaes_engine5rules4rv098evaluates1_0B7_
FNDA:0,_RNCNvNtNtCslt99XOVHWy4_12svaes_engine5rules4rv098evaluates2_0B7_
FNDA:1,_RNCNvNtNtCslt99XOVHWy4_12svaes_engine5rules4rv098evaluates3_0B7_
FNDA:0,_RNCNvNtNtCslt99XOVHWy4_12svaes_engine5rules4rv098evaluates_0B7_
FNDA:19,_RNCNvNvNtNtCslt99XOVHWy4_12svaes_engine5rules4rv098evaluate15is_valid_branch0B9_
FNDA:1,_RNvNtNtCslt99XOVHWy4_12svaes_engine5rules4rv098evaluate
FNDA:1,_RNvNvNtNtCslt99XOVHWy4_12svaes_engine5rules4rv098evaluate12is_valid_url
FNDA:1,_RNvNvNtNtCslt99XOVHWy4_12svaes_engine5rules4rv098evaluate15is_valid_branch
FNDA:1,_RNvNtNtNtCslt99XOVHWy4_12svaes_engine5rules4rv095tests13make_artifact
FNDA:1,_RNvNtNtNtCslt99XOVHWy4_12svaes_engine5rules4rv095tests9make_rule
FNDA:1,_RNvNtNtNtCslt99XOVHWy4_12svaes_engine5rules4rv095testss_46tc_uni_mot_09_rv09_valid_references_returns_ok
FNF:14
FNH:9
DA:28,1
DA:29,1
DA:30,1
DA:31,1
DA:32,1
DA:34,1
DA:35,1
DA:36,1
DA:37,1
DA:38,1
DA:40,1
DA:41,1
DA:42,1
DA:43,1
DA:45,1
DA:46,1
DA:47,1
DA:49,1
DA:50,19
DA:51,1
DA:53,1
DA:55,1
DA:56,2
DA:57,2
DA:58,2
DA:59,2
DA:60,2
DA:61,1
DA:63,1
DA:66,2
DA:67,0
DA:68,2
DA:69,0
DA:70,0
DA:73,1
DA:74,1
DA:75,0
DA:76,1
DA:77,0
DA:80,1
DA:81,1
DA:82,1
DA:83,1
DA:84,1
DA:85,1
DA:87,0
DA:88,0
DA:89,0
DA:90,0
DA:91,0
DA:92,0
DA:93,0
DA:94,0
DA:96,1
DA:103,1
DA:104,1
DA:105,1
DA:106,1
DA:107,1
DA:108,1
DA:109,1
DA:111,1
DA:112,1
DA:113,1
DA:114,1
DA:115,1
DA:116,1
DA:117,1
DA:122,1
DA:123,1
DA:124,1
DA:125,1
DA:126,1
DA:127,1
DA:130,1
DA:132,1
DA:134,1
DA:135,1
DA:136,1
BRF:0
BRH:0
LF:87
LH:69
end_of_record
SF:D:\34644\Documents\GitHub\SVAES\engine\src\rules\rv10.rs
FN:80,_RNvNtNtNtCslt99XOVHWy4_12svaes_engine5rules4rv105tests13make_artifact
FN:88,_RNvNtNtNtCslt99XOVHWy4_12svaes_engine5rules4rv105tests9make_rule
FN:99,_RNvNtNtNtCslt99XOVHWy4_12svaes_engine5rules4rv105testss_47tc_uni_mot_10_rv10_approved_artifact_returns_ok
FN:35,_RNCNCNvNtNtCslt99XOVHWy4_12svaes_engine5rules4rv108evaluates1_00B9_
FN:43,_RNCNCNvNtNtCslt99XOVHWy4_12svaes_engine5rules4rv108evaluates4_00B9_
FN:24,_RNCNvNtNtCslt99XOVHWy4_12svaes_engine5rules4rv108evaluate0B7_
FN:34,_RNCNvNtNtCslt99XOVHWy4_12svaes_engine5rules4rv108evaluates0_0B7_
FN:35,_RNCNvNtNtCslt99XOVHWy4_12svaes_engine5rules4rv108evaluates1_0B7_
FN:36,_RNCNvNtNtCslt99XOVHWy4_12svaes_engine5rules4rv108evaluates2_0B7_
FN:40,_RNCNvNtNtCslt99XOVHWy4_12svaes_engine5rules4rv108evaluates3_0B7_
FN:41,_RNCNvNtNtCslt99XOVHWy4_12svaes_engine5rules4rv108evaluates4_0B7_
FN:57,_RNCNvNtNtCslt99XOVHWy4_12svaes_engine5rules4rv108evaluates5_0B7_
FN:29,_RNCNvNtNtCslt99XOVHWy4_12svaes_engine5rules4rv108evaluates_0B7_
FN:21,_RNvNtNtCslt99XOVHWy4_12svaes_engine5rules4rv108evaluate
FNDA:1,_RNvNtNtNtCslt99XOVHWy4_12svaes_engine5rules4rv105tests13make_artifact
FNDA:1,_RNvNtNtNtCslt99XOVHWy4_12svaes_engine5rules4rv105tests9make_rule
FNDA:1,_RNvNtNtNtCslt99XOVHWy4_12svaes_engine5rules4rv105testss_47tc_uni_mot_10_rv10_approved_artifact_returns_ok
FNDA:0,_RNCNCNvNtNtCslt99XOVHWy4_12svaes_engine5rules4rv108evaluates1_00B9_
FNDA:1,_RNCNCNvNtNtCslt99XOVHWy4_12svaes_engine5rules4rv108evaluates4_00B9_
FNDA:0,_RNCNvNtNtCslt99XOVHWy4_12svaes_engine5rules4rv108evaluate0B7_
FNDA:0,_RNCNvNtNtCslt99XOVHWy4_12svaes_engine5rules4rv108evaluates0_0B7_
FNDA:0,_RNCNvNtNtCslt99XOVHWy4_12svaes_engine5rules4rv108evaluates1_0B7_
FNDA:1,_RNCNvNtNtCslt99XOVHWy4_12svaes_engine5rules4rv108evaluates2_0B7_
FNDA:1,_RNCNvNtNtCslt99XOVHWy4_12svaes_engine5rules4rv108evaluates3_0B7_
FNDA:1,_RNCNvNtNtCslt99XOVHWy4_12svaes_engine5rules4rv108evaluates4_0B7_
FNDA:1,_RNCNvNtNtCslt99XOVHWy4_12svaes_engine5rules4rv108evaluates5_0B7_
FNDA:0,_RNCNvNtNtCslt99XOVHWy4_12svaes_engine5rules4rv108evaluates_0B7_
FNDA:1,_RNvNtNtCslt99XOVHWy4_12svaes_engine5rules4rv108evaluate
FNF:14
FNH:9
DA:21,1
DA:22,1
DA:23,1
DA:24,1
DA:25,1
DA:27,1
DA:28,1
DA:29,1
DA:30,1
DA:32,1
DA:33,1
DA:34,1
DA:35,1
DA:36,1
DA:38,1
DA:39,1
DA:40,1
DA:41,1
DA:42,1
DA:43,1
DA:44,0
DA:46,1
DA:48,1
DA:49,1
DA:51,1
DA:52,1
DA:53,1
DA:57,1
DA:62,0
DA:63,0
DA:64,0
DA:65,0
DA:66,0
DA:67,0
DA:68,0
DA:69,0
DA:70,0
DA:73,1
DA:80,1
DA:81,1
DA:82,1
DA:83,1
DA:84,1
DA:85,1
DA:86,1
DA:88,1
DA:89,1
DA:90,1
DA:91,1
DA:92,1
DA:93,1
DA:94,1
DA:99,1
DA:100,1
DA:101,1
DA:103,1
DA:105,1
DA:107,1
DA:108,1
DA:109,1
DA:110,1
BRF:0
BRH:0
LF:71
LH:56
end_of_record